target datalayout = "e-m:e-p270:32:32-p271:32:32-p272:64:64-i64:64-i128:128-f80:128-n8:16:32:64-S128"
target triple = "x86_64-pc-linux-gnu"

%struct.gmx_ana_pos_t = type <{ ptr, ptr, ptr, %struct.gmx_ana_indexmap_t, i32, [4 x i8] }>
%struct.gmx_ana_indexmap_t = type { i32, ptr, ptr, %struct.t_blocka, ptr, %struct.t_blocka, i8 }
%struct.t_blocka = type { i32, ptr, i32, ptr, i32, i32 }
%class.anon.2 = type { i8 }

@.str.1 = private unnamed_addr constant [128 x i8] c"generated/home/dtcxzyw/WorkSpace/Projects/compilers/llvm-opt-benchmark/bench/gromacs/gromacs/src/gromacs/selection/position.cpp\00", align 1
@.str.6 = private unnamed_addr constant [7 x i8] c"pos->f\00", align 1
@.str.9 = private unnamed_addr constant [18 x i8] c"pos->nalloc_x > 0\00", align 1
@.str.10 = private unnamed_addr constant [37 x i8] c"No memory reserved yet for positions\00", align 1
@"__PRETTY_FUNCTION__._ZZ26gmx_ana_pos_reserve_forcesP13gmx_ana_pos_tENK3$_0clEv" = private unnamed_addr constant [88 x i8] c"auto gmx_ana_pos_reserve_forces(gmx_ana_pos_t *)::(anonymous class)::operator()() const\00", align 1

; Function Attrs: mustprogress uwtable
define internal void @_ZL13gmx_snew_implIA3_fEvPKcS2_iRPT_m(ptr noundef %0, ptr noundef %1, i32 noundef %2, ptr noundef nonnull align 8 dereferenceable(8) %3, i64 noundef %4) #0 {
  %6 = alloca ptr, align 8
  %7 = alloca ptr, align 8
  %8 = alloca i32, align 4
  %9 = alloca ptr, align 8
  %10 = alloca i64, align 8
  store ptr %0, ptr %6, align 8
  store ptr %1, ptr %7, align 8
  store i32 %2, ptr %8, align 4
  store ptr %3, ptr %9, align 8
  store i64 %4, ptr %10, align 8
  %11 = load ptr, ptr %6, align 8
  %12 = load ptr, ptr %7, align 8
  %13 = load i32, ptr %8, align 4
  %14 = load i64, ptr %10, align 8
  %15 = call noundef ptr @_Z11save_callocPKcS0_imm(ptr noundef %11, ptr noundef %12, i32 noundef %13, i64 noundef %14, i64 noundef 12)
  %16 = load ptr, ptr %9, align 8
  store ptr %15, ptr %16, align 8
  ret void
}

; Function Attrs: mustprogress uwtable
define internal void @"_ZZ26gmx_ana_pos_reserve_forcesP13gmx_ana_pos_tENK3$_0clEv"(ptr noundef nonnull align 1 dereferenceable(1) %0) #0 align 2 {
  %2 = alloca ptr, align 8
  store ptr %0, ptr %2, align 8
  call void @_ZN3gmx8internal13assertHandlerEPKcS2_S2_S2_i(ptr noundef @.str.9, ptr noundef @.str.10, ptr noundef @"__PRETTY_FUNCTION__._ZZ26gmx_ana_pos_reserve_forcesP13gmx_ana_pos_tENK3$_0clEv", ptr noundef @.str.1, i32 noundef 129) #8
  unreachable
}

; Function Attrs: mustprogress uwtable
define void @_Z26gmx_ana_pos_reserve_forcesP13gmx_ana_pos_t(ptr noundef %0) #0 {
  %2 = alloca ptr, align 8
  %3 = alloca %class.anon.2, align 1
  store ptr %0, ptr %2, align 8
  %4 = load ptr, ptr %2, align 8
  %5 = getelementptr inbounds %struct.gmx_ana_pos_t, ptr %4, i32 0, i32 4
  %6 = load i32, ptr %5, align 8
  %7 = icmp sgt i32 %6, 0
  br i1 %7, label %8, label %9

8:                                                ; preds = %1
  br label %10

9:                                                ; preds = %1
  call void @"_ZZ26gmx_ana_pos_reserve_forcesP13gmx_ana_pos_tENK3$_0clEv"(ptr noundef nonnull align 1 dereferenceable(1) %3)
  br label %10

10:                                               ; preds = %9, %8
  %11 = load ptr, ptr %2, align 8
  %12 = getelementptr inbounds %struct.gmx_ana_pos_t, ptr %11, i32 0, i32 2
  %13 = load ptr, ptr %12, align 8
  %14 = icmp ne ptr %13, null
  br i1 %14, label %22, label %15

15:                                               ; preds = %10
  %16 = load ptr, ptr %2, align 8
  %17 = getelementptr inbounds %struct.gmx_ana_pos_t, ptr %16, i32 0, i32 2
  %18 = load ptr, ptr %2, align 8
  %19 = getelementptr inbounds %struct.gmx_ana_pos_t, ptr %18, i32 0, i32 4
  %20 = load i32, ptr %19, align 8
  %21 = sext i32 %20 to i64
  call void @_ZL13gmx_snew_implIA3_fEvPKcS2_iRPT_m(ptr noundef @.str.6, ptr noundef @.str.1, i32 noundef 132, ptr noundef nonnull align 8 dereferenceable(8) %17, i64 noundef %21)
  br label %22

22:                                               ; preds = %15, %10
  ret void
}